; Function Attrs: nounwind uwtable
define internal fastcc range(i32 0, 2) i32 @setPixelBuffer(ptr noundef %0, ptr nocapture noundef writeonly %1, ptr noundef %2) unnamed_addr #1 {
  %4 = load ptr, ptr %0, align 8
  %5 = getelementptr inbounds i8, ptr %4, i64 168
  %6 = load ptr, ptr %5, align 8
  %7 = tail call ptr %6(ptr noundef nonnull %0, ptr noundef %2) #13
  store ptr %7, ptr %1, align 8
  %8 = icmp eq ptr %7, null
  br i1 %8, label %9, label %10

9:                                                ; preds = %3
  tail call void @JNU_ThrowByName(ptr noundef nonnull %0, ptr noundef nonnull @.str.22, ptr noundef nonnull @.str.50) #13
  br label %16

10:                                               ; preds = %3
  %11 = load ptr, ptr %0, align 8
  %12 = getelementptr inbounds i8, ptr %11, i64 1368
  %13 = load ptr, ptr %12, align 8
  %14 = tail call i32 %13(ptr noundef nonnull %0, ptr noundef nonnull %7) #13
  %15 = getelementptr inbounds i8, ptr %1, i64 8
  store i32 %14, ptr %15, align 8
  br label %16

16:                                               ; preds = %10, %9
  %.0 = phi i32 [ 0, %9 ], [ 1, %10 ]
  ret i32 %.0
}